target datalayout = "e-m:e-p270:32:32-p271:32:32-p272:64:64-i64:64-i128:128-f80:128-n8:16:32:64-S128"
target triple = "x86_64-pc-linux-gnu"

%struct.BuildTarget = type { i32, ptr, ptr, ptr, ptr, ptr, ptr, ptr, ptr, ptr, ptr, ptr, ptr, ptr, ptr, ptr, ptr, ptr, ptr, i8, i8, i8, i8, i8, i8, i8, i8, i8, i8, i8, i8, i8, i8, i8, i8, i8, i8, i8, i8, i32, i32, i32, i32, i32, i32, i32, i32, i32, i32, i32, i32, i32, i32, i32, i32, i32, i32, ptr, ptr, ptr, ptr, ptr, ptr, ptr, ptr, ptr, ptr, %struct.anon.85, %struct.anon.86, %struct.anon.87, %struct.anon.88 }
%struct.anon.85 = type { i16, i32, i32, i32 }
%struct.anon.86 = type { ptr, ptr, ptr, ptr }
%struct.anon.87 = type { ptr, ptr, i32, i8 }
%struct.anon.88 = type { ptr, ptr }

@active_target = dso_local global %struct.BuildTarget zeroinitializer, align 8
@.str.42 = private unnamed_addr constant [5 x i8] c".obj\00", align 1
@.str.43 = private unnamed_addr constant [3 x i8] c".o\00", align 1

; Function Attrs: nounwind uwtable
define dso_local ptr @get_object_extension() #0 {
  %1 = alloca ptr, align 8
  %2 = load i32, ptr getelementptr inbounds (%struct.BuildTarget, ptr @active_target, i32 0, i32 52), align 8
  switch i32 %2, label %4 [
    i32 23, label %3
    i32 24, label %3
    i32 16, label %3
  ]

3:                                                ; preds = %0, %0, %0
  store ptr @.str.42, ptr %1, align 8
  br label %5

4:                                                ; preds = %0
  store ptr @.str.43, ptr %1, align 8
  br label %5

5:                                                ; preds = %4, %3
  %6 = load ptr, ptr %1, align 8
  ret ptr %6
}