; Function Attrs: mustprogress nofree norecurse nosync nounwind willreturn memory(read, argmem: none, inaccessiblemem: none) uwtable
define dso_local noundef nonnull ptr @get_object_extension() local_unnamed_addr #14 {
  %1 = load i32, ptr getelementptr inbounds (%struct.BuildTarget, ptr @active_target, i64 0, i32 52), align 8
  switch i32 %1, label %2 [
    i32 23, label %3
    i32 24, label %3
    i32 16, label %3
  ]

2:                                                ; preds = %0
  br label %3

3:                                                ; preds = %0, %0, %0, %2
  %.0 = phi ptr [ @.str.43, %2 ], [ @.str.42, %0 ], [ @.str.42, %0 ], [ @.str.42, %0 ]
  ret ptr %.0
}